target datalayout = "e-m:e-p270:32:32-p271:32:32-p272:64:64-i64:64-i128:128-f80:128-n8:16:32:64-S128"
target triple = "x86_64-unknown-linux-gnu"

%struct.list_head = type { ptr, ptr }
%struct.mutex = type { %struct.atomic64_t, %struct.raw_spinlock, %struct.optimistic_spin_queue, %struct.list_head }
%struct.atomic64_t = type { i64 }
%struct.raw_spinlock = type { %struct.qspinlock }
%struct.qspinlock = type { %union.anon }
%union.anon = type { %struct.atomic_t }
%struct.atomic_t = type { i32 }
%struct.optimistic_spin_queue = type { %struct.atomic_t }

@cpuidle_governors = dso_local global %struct.list_head { ptr @cpuidle_governors, ptr @cpuidle_governors }, align 8
@cpuidle_curr_governor = dso_local local_unnamed_addr global ptr null, align 8
@cpuidle_detected_devices = external dso_local global %struct.list_head, align 8
@.str = private unnamed_addr constant [30 x i8] c"\016cpuidle: using governor %s\0A\00", align 1
@cpuidle_lock = external dso_local global %struct.mutex, align 8
@param_governor = dso_local global [16 x i8] zeroinitializer, align 16
@cpuidle_prev_governor = dso_local local_unnamed_addr global ptr null, align 8

; Function Attrs: fn_ret_thunk_extern nofree nounwind null_pointer_is_valid memory(read)
define dso_local noundef ptr @cpuidle_find_governor(ptr nocapture noundef readonly %0) local_unnamed_addr #0 align 16 {
  br label %2

2:                                                ; preds = %6, %1
  %3 = phi ptr [ @cpuidle_governors, %1 ], [ %4, %6 ]
  %4 = load ptr, ptr %3, align 8
  %5 = icmp eq ptr %4, @cpuidle_governors
  br i1 %5, label %10, label %6

6:                                                ; preds = %2
  %7 = getelementptr i8, ptr %4, i64 -16
  %8 = tail call i32 @strncasecmp(ptr noundef %0, ptr noundef %7, i64 noundef 16)
  %9 = icmp eq i32 %8, 0
  br i1 %9, label %10, label %2, !llvm.loop !5

10:                                               ; preds = %6, %2
  %11 = phi ptr [ %7, %6 ], [ null, %2 ]
  ret ptr %11
}

; Function Attrs: mustprogress nofree nounwind null_pointer_is_valid willreturn memory(read)
declare dso_local i32 @strncasecmp(ptr nocapture noundef, ptr nocapture noundef, i64 noundef) local_unnamed_addr #1

; Function Attrs: fn_ret_thunk_extern nounwind null_pointer_is_valid
define dso_local noundef i32 @cpuidle_switch_governor(ptr noundef %0) local_unnamed_addr #2 align 16 {
  %2 = icmp eq ptr %0, null
  br i1 %2, label %28, label %3

3:                                                ; preds = %1
  %4 = load ptr, ptr @cpuidle_curr_governor, align 8
  %5 = icmp eq ptr %4, %0
  br i1 %5, label %28, label %6

6:                                                ; preds = %3
  tail call void @cpuidle_uninstall_idle_handler() #6
  %7 = load ptr, ptr @cpuidle_curr_governor, align 8
  %8 = icmp eq ptr %7, null
  %9 = load ptr, ptr @cpuidle_detected_devices, align 8
  %10 = icmp eq ptr %9, @cpuidle_detected_devices
  %11 = select i1 %8, i1 true, i1 %10
  br i1 %11, label %17, label %12

12:                                               ; preds = %12, %6
  %13 = phi ptr [ %15, %12 ], [ %9, %6 ]
  %14 = getelementptr i8, ptr %13, i64 -784
  tail call void @cpuidle_disable_device(ptr noundef %14) #6
  %15 = load ptr, ptr %13, align 8
  %16 = icmp eq ptr %15, @cpuidle_detected_devices
  br i1 %16, label %17, label %12, !llvm.loop !8

17:                                               ; preds = %12, %6
  store ptr %0, ptr @cpuidle_curr_governor, align 8
  %18 = load ptr, ptr @cpuidle_detected_devices, align 8
  %19 = icmp eq ptr %18, @cpuidle_detected_devices
  br i1 %19, label %26, label %20

20:                                               ; preds = %20, %17
  %21 = phi ptr [ %24, %20 ], [ %18, %17 ]
  %22 = getelementptr i8, ptr %21, i64 -784
  %23 = tail call i32 @cpuidle_enable_device(ptr noundef %22) #6
  %24 = load ptr, ptr %21, align 8
  %25 = icmp eq ptr %24, @cpuidle_detected_devices
  br i1 %25, label %26, label %20, !llvm.loop !9

26:                                               ; preds = %20, %17
  tail call void @cpuidle_install_idle_handler() #6
  %27 = tail call i32 (ptr, ...) @_printk(ptr noundef nonnull @.str, ptr noundef nonnull %0) #7
  br label %28

28:                                               ; preds = %26, %3, %1
  %29 = phi i32 [ 0, %26 ], [ -22, %1 ], [ 0, %3 ]
  ret i32 %29
}

; Function Attrs: null_pointer_is_valid
declare dso_local void @cpuidle_uninstall_idle_handler() local_unnamed_addr #3

; Function Attrs: null_pointer_is_valid
declare dso_local void @cpuidle_disable_device(ptr noundef) local_unnamed_addr #3

; Function Attrs: null_pointer_is_valid
declare dso_local i32 @cpuidle_enable_device(ptr noundef) local_unnamed_addr #3

; Function Attrs: null_pointer_is_valid
declare dso_local void @cpuidle_install_idle_handler() local_unnamed_addr #3

; Function Attrs: cold null_pointer_is_valid
declare dso_local i32 @_printk(ptr noundef, ...) local_unnamed_addr #4

; Function Attrs: fn_ret_thunk_extern nounwind null_pointer_is_valid
define dso_local noundef i32 @cpuidle_register_governor(ptr noundef %0) local_unnamed_addr #2 align 16 {
  %2 = icmp eq ptr %0, null
  br i1 %2, label %44, label %3

3:                                                ; preds = %1
  %4 = getelementptr inbounds i8, ptr %0, i64 56
  %5 = load ptr, ptr %4, align 8
  %6 = icmp eq ptr %5, null
  br i1 %6, label %44, label %7

7:                                                ; preds = %3
  %8 = tail call i32 @cpuidle_disabled() #6
  %9 = icmp eq i32 %8, 0
  br i1 %9, label %10, label %44

10:                                               ; preds = %7
  tail call void @mutex_lock(ptr noundef nonnull @cpuidle_lock) #6
  br label %11

11:                                               ; preds = %15, %10
  %12 = phi ptr [ @cpuidle_governors, %10 ], [ %13, %15 ]
  %13 = load ptr, ptr %12, align 8
  %14 = icmp eq ptr %13, @cpuidle_governors
  br i1 %14, label %19, label %15

15:                                               ; preds = %11
  %16 = getelementptr i8, ptr %13, i64 -16
  %17 = tail call i32 @strncasecmp(ptr noundef nonnull %0, ptr noundef %16, i64 noundef 16)
  %18 = icmp eq i32 %17, 0
  br i1 %18, label %19, label %11, !llvm.loop !5

19:                                               ; preds = %15, %11
  %20 = phi ptr [ %16, %15 ], [ null, %11 ]
  %21 = icmp eq ptr %20, null
  br i1 %21, label %22, label %42

22:                                               ; preds = %19
  %23 = getelementptr inbounds i8, ptr %0, i64 16
  %24 = load ptr, ptr getelementptr inbounds (%struct.list_head, ptr @cpuidle_governors, i64 0, i32 1), align 8
  store ptr %23, ptr getelementptr inbounds (%struct.list_head, ptr @cpuidle_governors, i64 0, i32 1), align 8
  store ptr @cpuidle_governors, ptr %23, align 8
  %25 = getelementptr inbounds i8, ptr %0, i64 24
  store ptr %24, ptr %25, align 8
  store volatile ptr %23, ptr %24, align 8
  %26 = load ptr, ptr @cpuidle_curr_governor, align 8
  %27 = icmp eq ptr %26, null
  br i1 %27, label %40, label %28

28:                                               ; preds = %22
  %29 = tail call i32 @strncasecmp(ptr noundef nonnull @param_governor, ptr noundef nonnull %0, i64 noundef 16)
  %30 = icmp eq i32 %29, 0
  br i1 %30, label %40, label %31

31:                                               ; preds = %28
  %32 = getelementptr inbounds i8, ptr %26, i64 32
  %33 = load i32, ptr %32, align 8
  %34 = getelementptr inbounds i8, ptr %0, i64 32
  %35 = load i32, ptr %34, align 8
  %36 = icmp ult i32 %33, %35
  br i1 %36, label %37, label %42

37:                                               ; preds = %31
  %38 = tail call i32 @strncasecmp(ptr noundef nonnull @param_governor, ptr noundef nonnull %26, i64 noundef 16)
  %39 = icmp eq i32 %38, 0
  br i1 %39, label %42, label %40

40:                                               ; preds = %37, %28, %22
  %41 = tail call i32 @cpuidle_switch_governor(ptr noundef nonnull %0), !range !10
  br label %42

42:                                               ; preds = %40, %37, %31, %19
  %43 = phi i32 [ 0, %40 ], [ 0, %37 ], [ 0, %31 ], [ -17, %19 ]
  tail call void @mutex_unlock(ptr noundef nonnull @cpuidle_lock) #6
  br label %44

44:                                               ; preds = %42, %7, %3, %1
  %45 = phi i32 [ %43, %42 ], [ -22, %3 ], [ -22, %1 ], [ -19, %7 ]
  ret i32 %45
}

; Function Attrs: null_pointer_is_valid
declare dso_local i32 @cpuidle_disabled() local_unnamed_addr #3

; Function Attrs: null_pointer_is_valid
declare dso_local void @mutex_lock(ptr noundef) local_unnamed_addr #3

; Function Attrs: null_pointer_is_valid
declare dso_local void @mutex_unlock(ptr noundef) local_unnamed_addr #3

; Function Attrs: fn_ret_thunk_extern nounwind null_pointer_is_valid
define dso_local i64 @cpuidle_governor_latency_req(i32 noundef %0) local_unnamed_addr #2 align 16 {
  %2 = tail call ptr @get_cpu_device(i32 noundef %0) #6
  %3 = getelementptr inbounds i8, ptr %2, i64 520
  %4 = load ptr, ptr %3, align 8
  %5 = icmp eq ptr %4, null
  %6 = icmp ugt ptr %4, inttoptr (i64 -4096 to ptr)
  %7 = or i1 %5, %6
  br i1 %7, label %10, label %8

8:                                                ; preds = %1
  %9 = tail call i32 @pm_qos_read_value(ptr noundef %4) #6
  br label %10

10:                                               ; preds = %8, %1
  %11 = phi i32 [ %9, %8 ], [ 2147483647, %1 ]
  %12 = tail call i32 @cpu_latency_qos_limit() #6
  %13 = tail call i32 @llvm.smin.i32(i32 %11, i32 %12)
  %14 = sext i32 %13 to i64
  %15 = mul nsw i64 %14, 1000
  ret i64 %15
}

; Function Attrs: null_pointer_is_valid
declare dso_local ptr @get_cpu_device(i32 noundef) local_unnamed_addr #3

; Function Attrs: null_pointer_is_valid
declare dso_local i32 @cpu_latency_qos_limit() local_unnamed_addr #3

; Function Attrs: null_pointer_is_valid
declare dso_local i32 @pm_qos_read_value(ptr noundef) local_unnamed_addr #3

; Function Attrs: nocallback nofree nosync nounwind speculatable willreturn memory(none)
declare i32 @llvm.smin.i32(i32, i32) #5


!llvm.module.flags = !{!0, !1, !2, !3, !4}

!0 = !{i32 1, !"wchar_size", i32 2}
!1 = !{i32 8, !"cf-protection-branch", i32 1}
!2 = !{i32 4, !"function_return_thunk_extern", i32 1}
!3 = !{i32 4, !"indirect_branch_cs_prefix", i32 1}
!4 = !{i32 4, !"SkipRaxSetup", i32 1}
!5 = distinct !{!5, !6, !7}
!6 = !{!"llvm.loop.mustprogress"}
!7 = !{!"llvm.loop.unroll.disable"}
!8 = distinct !{!8, !6, !7}
!9 = distinct !{!9, !6, !7}
!10 = !{i32 -22, i32 1}
